(dp0
I0
(F339.0046
F2.0745
F0.9936
F0.0064
tp1
sI1
(F338.8053805380538
F2.2736273627362737
F0.9852985298529853
F0.014701470147014702
tp2
sI2
(F338.7840784078408
F2.294929492949295
F0.9782978297829783
F0.021702170217021702
tp3
sI3
(F338.78227822782276
F2.2967296729672966
F0.9678967896789679
F0.032103210321032104
tp4
sI4
(F338.7820782078208
F2.296929692969297
F0.9402940294029403
F0.059705970597059704
tp5
sI5
(F338.7820782078208
F2.2963296329632965
F0.8093809380938094
F0.19121912191219123
tp6
sI6
(F338.78047804780476
F2.295129512951295
F0.48654865486548654
F0.5168516851685169
tp7
sI7
(F338.77467746774676
F2.2907290729072907
F0.16791679167916793
F0.8456845684568457
tp8
sI8
(F338.75817581758173
F2.271727172717272
F0.0736073607360736
F0.9754975497549755
tp9
sI9
(F338.6948694869487
F2.2413241324132414
F0.14411441144114412
F0.9986998699869987
tp10
sI10
(F338.51855185518554
F2.223122312231223
F0.3355335533553355
F1.0018001800180019
tp11
sI11
(F338.15591559155916
F2.2485248524852484
F0.66996699669967
F1.0046004600460046
tp12
sI12
(F337.51950390078014
F2.464892978595719
F1.0852170434086816
F1.0099019803960791
tp13
sI13
(F336.71918767507003
F2.823329331732693
F1.515406162464986
F1.021608643457383
tp14
sI14
(F335.85101060636384
F3.337802681608965
F1.8478086852111266
F1.0440264158495096
tp15
sI15
(F335.1409268341507
F3.8176358722850567
F2.031928735862276
F1.0896807126413772
tp16
sI16
(F334.6572516025641
F4.186999198717949
F2.05088141025641
F1.1829927884615385
tp17
sI17
(F334.4045947030498
F4.384229534510434
F1.9431179775280898
F1.3456059390048154
tp18
sI18
(F334.26373515797945
F4.491446971221574
F1.7147313342724895
F1.6016301066613001
tp19
sI19
(F334.16922921302853
F4.537527817115112
F1.398745700991301
F1.9569087598624317
tp20
sI20
(F334.063740963242
F4.566541085429183
F1.0785052438651868
F2.347215151206598
tp21
sI21
(F333.90254672417336
F4.589135346066954
F0.8375436434586158
F2.725919079893202
tp22
sI22
(F333.5951887183741
F4.645064288676897
F0.7880547490667773
F3.0136872666943177
tp23
sI23
(F333.13828344978623
F4.736364584419648
F0.957034101574721
F3.205339451454792
tp24
sI24
(F332.45280251440545
F4.915453116815087
F1.3609219486642221
F3.3084337349397592
tp25
sI25
(F331.4942782152231
F5.2889238845144355
F1.8828346456692913
F3.3703937007874014
tp26
sI26
(F330.36449679251234
F5.750762435587339
F2.488694920601535
F3.4323272689031445
tp27
sI27
(F329.1078379800105
F6.375381378221989
F3.047553918990005
F3.505523408732246
tp28
sI28
(F327.8982212398695
F7.040311546153037
F3.4634249026418273
F3.6347752868119145
tp29
sI29
(F326.8338072669826
F7.674249605055293
F3.6787783043707214
F3.849394418114797
tp30
sI30
(F325.96817032040474
F8.238511804384485
F3.667158516020236
F4.1607293423271505
tp31
sI31
(F325.37212734556186
F8.623655913978494
F3.4514020662028253
F4.58697027197976
tp32
sI32
(F324.9109842478063
F8.88751453642034
F3.1234802833280475
F5.109208161539275
tp33
sI33
(F324.54075799280116
F9.054626296845225
F2.7296210035994073
F5.70696591149693
tp34
sI34
(F324.1174471700117
F9.16470213443772
F2.4303918445364765
F6.3134756291812675
tp35
sI35
(F323.5601531751941
F9.280182959259653
F2.3000744601638123
F6.882565684501649
tp36
sI36
(F322.75922371507784
F9.478460226060994
F2.418212838558328
F7.36681595222862
tp37
sI37
(F321.6615351721189
F9.778383579217447
F2.8370750481077613
F7.740752619200342
tp38
sI38
(F320.2369886485329
F10.274255729278218
F3.468408652816449
F8.034054401370744
tp39
sI39
(F318.59607759082627
F10.877719429857464
F4.271353552673883
F8.268567141785446
tp40
sI40
(F316.75351131124694
F11.661198670526428
F5.084914763589579
F8.512812265465852
tp41
sI41
(F314.86106640918354
F12.528269498980796
F5.821692951400064
F8.801523441690806
tp42
sI42
(F313.0153449940981
F13.480309046034982
F6.30410988303466
F9.213220302607576
tp43
sI43
(F311.38733225979604
F14.342995169082126
F6.5198067632850245
F9.764573268921096
tp44
sI44
(F309.99087199312714
F15.099441580756015
F6.463702749140894
F10.458655498281788
tp45
sI45
(F308.8299838796346
F15.685975282106394
F6.188178398710371
F11.309403546480388
tp46
sI46
(F307.783048295149
F16.162525545875013
F5.822523394643433
F12.245455523287081
tp47
sI47
(F306.7786629346539
F16.512326407578858
F5.4574227581009795
F13.263429863279148
tp48
sI48
(F305.65941404566996
F16.859651012494613
F5.240090478242137
F14.251938819474365
tp49
sI49
(F304.32377358490567
F17.209164420485177
F5.28010781671159
F15.19687331536388
tp50
sI50
(F302.69309600863
F17.636353829557713
F5.654261057173678
F16.02437971952535
tp51
sI51
(F300.68047911945615
F18.22434444804144
F6.354375741879789
F16.747706917017375
tp52
sI52
(F298.2959922221022
F19.024089877930216
F7.28691800799395
F17.399913578913253
tp53
sI53
(F295.68579766536965
F19.954280155642024
F8.348032857760485
F18.01599654128837
tp54
sI54
(F292.93405405405406
F21.020216216216216
F9.354054054054053
F18.696
tp55
sI55
(F290.1360294117647
F22.187824394463668
F10.219506920415226
F19.45945069204152
tp56
sI56
(F287.45012981393336
F23.37375594980528
F10.787754218952834
F20.39052358286456
tp57
sI57
(F285.0280242371781
F24.422743994806318
F11.051287600086562
F21.49880978143259
tp58
sI58
(F282.7797857374743
F25.441727085813223
F10.949897197273023
F22.829455686614004
tp59
sI59
(F280.8031172204784
F26.20997943500379
F10.66749648230328
F24.319190388570192
tp60
sI60
(F278.88198354265916
F26.887072325682112
F10.333585967951494
F25.896275443915115
tp61
sI61
(F276.9870059556037
F27.383649160801298
F10.120303194369248
F27.50774228478614
tp62
sI62
(F274.8313474870017
F27.956672443674176
F10.084055459272097
F29.126733102253034
tp63
sI63
(F272.41031754633144
F28.5396120082367
F10.379321556302157
F30.669665113254577
tp64
sI64
(F269.6929082628497
F29.132942962481025
F11.063326827152462
F32.10832791151594
tp65
sI65
(F266.57358204099336
F29.907385316126234
F12.065936449408957
F33.45060188699707
tp66
sI66
(F263.1815618221258
F30.820932754880694
F13.254555314533622
F34.740455531453364
tp67
sI67
(F259.61872220414364
F31.805076472502442
F14.542141230068337
F36.03189066059225
tp68
sI68
(F255.93684895833334
F32.898111979166664
F15.751519097222221
F37.41124131944444
tp69
sI69
(F252.25480195333694
F34.14270211611503
F16.643516006511124
F38.95594139989148
tp70
sI70
(F248.85860010851871
F35.21519262072707
F17.206511123168745
F40.71665762344004
tp71
sI71
(F245.59149120902973
F36.280876926416326
F17.423485999565877
F42.700347297590625
tp72
sI72
(F242.54379680885705
F37.201237381960276
F17.331488114620644
F44.91891891891892
tp73
sI73
(F239.64965801758765
F37.94061448268375
F17.09738356313104
F47.309846922158286
tp74
sI74
(F236.79229098805646
F38.58414766558089
F16.814657980456026
F49.8057546145494
tp75
sI75
(F233.8581668114683
F39.0998045178106
F16.705473501303214
F52.333188531711556
tp76
sI76
(F230.7755212858384
F39.57135099913119
F16.829930495221546
F54.81983058210252
tp77
sI77
(F227.46264118158123
F40.0235664639444
F17.34263683753258
F57.167788879235445
tp78
sI78
(F223.8911697621375
F40.474638861735635
F18.181709568806344
F59.44987509503638
tp79
sI79
(F220.0635386119257
F40.982296079070274
F19.304768111219722
F61.64679048550016
tp80
sI80
(F216.0106440751602
F41.56478766156186
F20.59465623981753
F63.82730531117628
tp81
sI81
(F211.80373628760725
F42.33528836754643
F21.78668404474856
F66.07168458781362
tp82
sI82
(F207.69762137504074
F43.022700119474315
F22.802107092429672
F68.47496470077115
tp83
sI83
(F203.6378842185294
F43.80601716085587
F23.54969045291626
F71.00380145541436
tp84
sI84
(F199.7839687194526
F44.47072879330944
F23.97697404149017
F73.76572173346366
tp85
sI85
(F196.1010101010101
F45.08145975887911
F24.05789073531009
F76.75703269251656
tp86
sI86
(F192.60482294155986
F45.539322181186186
F23.866282859004997
F79.98739952205084
tp87
sI87
(F189.19141770776753
F45.899619771863115
F23.54644215100489
F83.36013036393264
tp88
sI88
(F185.8560564910375
F46.097772949483975
F23.30439978272678
F86.73938077131993
tp89
sI89
(F182.43355427577964
F46.214277952841464
F23.16038248397262
F90.18776485928501
tp90
sI90
(F178.93045745952406
F46.28425513419537
F23.26719547973487
F93.51407149842443
tp91
sI91
(F175.33786133449252
F46.177461421430124
F23.747337535318408
F96.73234079547925
tp92
sI92
(F171.4875027168007
F46.226363833949144
F24.41675722668985
F99.86437730928058
tp93
sI93
(F167.628015648772
F46.11160617257118
F25.282003912193
F102.9733753531841
tp94
sI94
(F163.62964572918932
F46.12834166485547
F26.177678765485766
F106.05933492718974
tp95
sI95
(F159.62866768093892
F46.172679852206045
F26.987285372745056
F109.20636818083025
tp96
sI96
(F155.77798304716367
F46.11367094109976
F27.636818083025428
F112.46652901543143
tp97
sI97
(F151.98326450771572
F46.11247554879374
F28.034557704846772
F115.86470332536405
tp98
sI98
(F148.38969789176267
F46.10671593131928
F28.05770484677244
F119.4408824168659
tp99
sI99
(F144.99967394848386
F45.936746005868926
F27.89664166938376
F123.1616128681665
tp100
sI100
(F141.68220845560265
F45.77024236496033
F27.514400608629497
F127.02782306271058
tp101
sI101
(F138.50135854798393
F45.478969677209
F27.01804151722639
F130.99630474948376
tp102
sI102
(F135.3966960113031
F45.053798500163026
F26.61732420389088
F134.92685577654603
tp103
sI103
(F132.26171068362135
F44.63025758069775
F26.265514617976308
F138.83719160960766
tp104
sI104
(F129.11509618519727
F44.05749375067927
F26.17987175307032
F142.6422128029562
tp105
sI105
(F125.85597826086956
F43.51576086956522
F26.287065217391305
F146.3361956521739
tp106
sI106
(F122.63032608695652
F42.89663043478261
F26.53163043478261
F149.93641304347827
tp107
sI107
(F119.38130434782609
F42.296521739130434
F26.866304347826087
F153.4508695652174
tp108
sI108
(F116.19173913043478
F41.673152173913046
F27.169565217391305
F156.96054347826086
tp109
sI109
(F113.06717391304348
F41.04663043478261
F27.393586956521737
F160.48760869565217
tp110
sI110
(F109.98815217391305
F40.47902173913044
F27.453260869565216
F164.0745652173913
tp111
sI111
(F107.04054347826087
F39.903695652173916
F27.334347826086958
F167.71641304347827
tp112
sI112
(F104.22358695652174
F39.33304347826087
F26.970108695652176
F171.46826086956523
tp113
sI113
(F101.56543478260869
F38.68565217391304
F26.512391304347826
F175.23152173913044
tp114
sI114
(F98.97271442548103
F38.010109794542885
F25.93010109794543
F179.0822915534297
tp115
sI115
(F96.46352864441788
F37.294923361234915
F25.35601695836504
F182.88074790738125
tp116
sI116
(F93.98043265572345
F36.60354386346342
F24.780954451570825
F186.63028590064138
tp117
sI117
(F91.58049788020438
F35.787803022067614
F24.298728122622023
F190.32818784650505
tp118
sI118
(F89.15046749293325
F35.041530767558164
F23.868993259404217
F193.9328114807567
tp119
sI119
(F86.80593607305936
F34.18645357686454
F23.656338334420525
F197.3450750163079
tp120
sI120
(F84.4632528810611
F33.337899543378995
F23.50369645575125
F200.68895412046098
tp121
sI121
(F82.1543813872581
F32.54783648619265
F23.29636877582083
F203.99521635138075
tp122
sI122
(F79.92411393781256
F31.735159817351597
F23.098499673842138
F207.23602957164601
tp123
sI123
(F77.75712111328549
F30.945857795172863
F22.870841487279844
F210.4199826049141
tp124
sI124
(F75.70297890845836
F30.10458795390302
F22.563600782778867
F213.62263535551207
tp125
sI125
(F73.67612524461839
F29.379104153076756
F22.131332898456186
F216.80724070450097
tp126
sI126
(F71.76125244618396
F28.63155033702979
F21.625896934116113
F219.97510328332245
tp127
sI127
(F69.94944553163731
F27.866710154381387
F21.034464013916068
F223.14318330071754
tp128
sI128
(F68.20308762774516
F27.093716025222875
F20.438464883670363
F226.2585344640139
tp129
sI129
(F66.51348119156339
F26.307023265927377
F19.853555120678408
F229.31974342248316
tp130
sI130
(F64.88551859099805
F25.50434877147206
F19.30963252881061
F232.2943031093716
tp131
sI131
(F63.299119278025444
F24.729694465586604
F18.78242905295205
F235.1822333369577
tp132
sI132
(F61.747390169638976
F23.944541104828186
F18.328077424967375
F237.97433666811656
tp133
sI133
(F60.2395606785559
F23.17007394519356
F17.876685515441498
F240.70802522836016
tp134
sI134
(F58.775095160413265
F22.41348558999456
F17.508646003262644
F243.29657422512236
tp135
sI135
(F57.372416793561015
F21.665107678921036
F17.137589732434197
F245.81944746573853
tp136
sI136
(F56.00413402959095
F20.920800696257615
F16.789817232375977
F248.28176675369886
tp137
sI137
(F54.687309534175014
F20.216042664344798
F16.380496299521113
F250.71571615150197
tp138
sI138
(F53.42721829069134
F19.50789330430049
F15.971148611867175
F253.09548176374523
tp139
sI139
(F52.224945533769066
F18.858605664488017
F15.495642701525055
F255.4255991285403
tp140
sI140
(F51.09547683923706
F18.203051771117167
F15.009809264305177
F257.7001634877384
tp141
sI141
(F49.98952993783401
F17.573890282473553
F14.499291089540844
F259.94764968917
tp142
sI142
(F48.95491758541644
F16.966815849798056
F13.986246043008405
F262.106211112324
tp143
sI143
(F47.959798994974875
F16.352414245138736
F13.501529386060739
F264.19969412278783
tp144
sI144
(F47.008746036952004
F15.744943697387122
F13.031923034874822
F266.23100470099484
tp145
sI145
(F46.086870897155364
F15.162691466083151
F12.576148796498906
F268.19212253829323
tp146
sI146
(F45.227058436574936
F14.597083653108212
F12.170485692358294
F270.03278149325735
tp147
sI147
(F44.37373626373626
F14.064285714285715
F11.796703296703297
F271.80065934065937
tp148
sI148
(F43.562995594713655
F13.528193832599118
F11.430176211453745
F273.52125550660793
tp149
sI149
(F42.77083563307208
F13.030025389115796
F11.106413511425101
F275.1442764101998
tp150
sI150
(F42.02644390351848
F12.516928524009737
F10.780703695507857
F276.7321310024342
tp151
sI151
(F41.2854607962737
F12.064766552068315
F10.452367749805923
F278.2645003881557
tp152
sI152
(F40.602844760528946
F11.590732303589288
F10.109123235915101
F279.7755306145127
tp153
sI153
(F39.96777071484331
F11.163376826140292
F9.772833723653395
F281.19337571094013
tp154
sI154
(F39.34951890803312
F10.757216379503244
F9.394383530991274
F282.60281942268966
tp155
sI155
(F38.773957982249186
F10.357375575778002
F9.038085608358612
F283.94023143467024
tp156
sI156
(F38.24824858757062
F10.001242937853107
F8.692203389830508
F285.1839548022599
tp157
sI157
(F37.7411484339537
F9.568769859282796
F8.389809350885157
F286.4359963685883
tp158
sI158
(F37.224401368301024
F9.20478905359179
F8.083922462941848
F287.63249714937285
tp159
sI159
(F36.72288465948177
F8.86906672781472
F7.796147672552167
F288.7719559734006
tp160
sI160
(F36.26553476553477
F8.53892353892354
F7.5323400323400325
F289.83067683067685
tp161
sI161
(F35.81242004884289
F8.208745202930574
F7.306663565530876
F290.85172694499363
tp162
sI162
(F35.40444704505559
F7.873493270918666
F7.068929198361615
F291.85149210064367
tp163
sI163
(F35.0060120240481
F7.587763762819757
F6.838264764823765
F292.7848638453377
tp164
sI164
(F34.639391056137015
F7.2931731684110375
F6.642126546146527
F293.6607992388202
tp165
sI165
(F34.28064903846154
F7.019591346153846
F6.443389423076923
F294.51286057692306
tp166
sI166
(F33.93472711802601
F6.8091649446943
F6.229609821320044
F295.3078886592926
tp167
sI167
(F33.61452582505214
F6.546681388786652
F6.02846276530487
F296.10109189056556
tp168
sI168
(F33.304914370811616
F6.3054107719036985
F5.8232812112186645
F296.8739141226111
tp169
sI169
(F33.00301356102461
F6.101958814665997
F5.613510798593672
F297.61715218483175
tp170
sI170
(F32.752677205507396
F5.916879143294238
F5.440081591024987
F298.26249362570115
tp171
sI171
(F32.486441115702476
F5.715263429752066
F5.245996900826446
F298.94873450413223
tp172
sI172
(F32.2816679779701
F5.521767637031209
F5.085365853658536
F299.54314188303175
tp173
sI173
(F32.02733333333333
F5.3478666666666665
F4.933866666666667
F300.13373333333334
tp174
sI174
(F31.790329134498172
F5.176351076798049
F4.7912772585669785
F300.6942977109576
tp175
sI175
(F31.56999311768754
F5.008947006194081
F4.6463867859600825
F301.25161734342737
tp176
sI176
(F31.382814690215866
F4.853658536585366
F4.541070927950659
F301.72890384076254
tp177
sI177
(F31.195723449750535
F4.697790449037776
F4.416821097647897
F302.23464005702067
tp178
sI178
(F31.01290229051899
F4.535952449985503
F4.286749782545665
F302.7425340678457
tp179
sI179
(F30.82971175166297
F4.405617147080561
F4.177679231337768
F303.1828529194383
tp180
sI180
(F30.651924528301887
F4.2697358490566035
F4.061132075471698
F303.6274716981132
tp181
sI181
(F30.489584940595588
F4.150902638481716
F3.9554081160314767
F304.0327110013887
tp182
sI182
(F30.30694313540685
F4.023562676720076
F3.834275840402136
F304.47408105560794
tp183
sI183
(F30.171882522869524
F3.8913497030974162
F3.70871449205585
F304.90210239126947
tp184
sI184
(F30.01396648044693
F3.7985540584949065
F3.6086099244166943
F305.25599737101544
tp185
sI185
(F29.892142015816926
F3.6885411408379607
F3.5233047282517247
F305.59784620562004
tp186
sI186
(F29.74715615305067
F3.6065149948293693
F3.4420889348500516
F305.9377800758359
tp187
sI187
(F29.63540197461213
F3.507228490832158
F3.3483779971791257
F306.277856135402
tp188
sI188
(F29.491945701357466
F3.422262443438914
F3.2573755656108596
F306.6164705882353
tp189
sI189
(F29.406511627906976
F3.3471627906976744
F3.19553488372093
F306.88018604651165
tp190
sI190
(F29.286231194058274
F3.250238049895258
F3.1169301085507524
F307.2148162254809
tp191
sI191
(F29.180231417925082
F3.184742106295352
F3.0466758187879974
F307.4846048244754
tp192
sI192
(F29.069146785281035
F3.1277800242620297
F2.9749292357460573
F307.75576223210675
tp193
sI193
(F28.935865504358656
F3.053964300539643
F2.9153175591531757
F308.0475300954753
tp194
sI194
(F28.851757188498404
F2.9588924387646434
F2.847923322683706
F308.3269435569755
tp195
sI195
(F28.7563117453348
F2.9069154774972557
F2.786827661909989
F308.5582875960483
tp196
sI196
(F28.664776593331823
F2.84486278067589
F2.7557269222045817
F308.7500567022
tp197
sI197
(F28.590449306045635
F2.799811808986121
F2.686426723123971
F308.97341801928957
tp198
sI198
(F28.53135634419057
F2.736023334953816
F2.6419543023821097
F309.1511910549344
tp199
sI199
(F28.468309859154928
F2.676056338028169
F2.6053822937625752
F309.33098591549293
tp200
sI200
(F28.392391870766023
F2.6300156331422615
F2.577905158936946
F309.5057321521626
tp201
sI201
(F28.31313672922252
F2.5750670241286864
F2.496782841823056
F309.728418230563
tp202
sI202
(F28.24513077351141
F2.5108514190317197
F2.4607679465776293
F309.9218141346689
tp203
sI203
(F28.217202432667246
F2.463075586446568
F2.4543874891398785
F310.04807413843037
tp204
sI204
(F28.21732613908873
F2.3953836930455634
F2.4439448441247
F310.18854916067147
tp205
sI205
(F28.13764305598515
F2.339622641509434
F2.386328487472935
F310.38694710794925
tp206
sI206
(F28.041038794485413
F2.290477717217057
F2.344661750561077
F310.5671689644117
tp207
sI207
(F27.97070572569907
F2.2539946737683088
F2.2972703062583224
F310.72170439414117
tp208
sI208
(F27.901038062283735
F2.226643598615917
F2.275778546712803
F310.87162629757785
tp209
sI209
(F27.849605168700645
F2.202799712849964
F2.197056712132089
F311.0603015075377
tp210
sI210
(F27.813084112149532
F2.1719626168224297
F2.161121495327103
F311.21158878504673
tp211
sI211
(F27.74329054842474
F2.137300661221315
F2.1279657720731233
F311.40178918708676
tp212
sI212
(F27.717049576783555
F2.11205159209996
F2.083031035872632
F311.54373236598144
tp213
sI213
(F27.694608256107834
F2.1019376579612468
F2.030749789385004
F311.670598146588
tp214
sI214
(F27.610281195079086
F2.0667838312829527
F2.015377855887522
F311.79217926186294
tp215
sI215
(F27.577046181984453
F2.026520347508002
F1.9908550525834476
F311.9286694101509
tp216
sI216
(F27.507349454717875
F2.0018966334755808
F1.957325746799431
F312.072546230441
tp217
sI217
(F27.51283316880553
F1.9575518262586378
F1.9313919052319841
F312.180157946693
tp218
sI218
(F27.470133882595263
F1.9227600411946446
F1.9155509783728115
F312.31050463439755
tp219
sI219
(F27.408141403320837
F1.9185859667916443
F1.8580610605249062
F312.44777718264595
tp220
sI220
(F27.412885154061623
F1.8717086834733894
F1.8515406162464987
F312.503081232493
tp221
sI221
(F27.33954571927781
F1.852067559697146
F1.832847990681421
F312.59114735002913
tp222
sI222
(F27.350061199510403
F1.8745410036719705
F1.8096695226438189
F312.57711138310896
tp223
sI223
(F27.3059796437659
F1.8104325699745547
F1.8244274809160306
F312.69083969465646
tp224
sI224
(F27.300066533599466
F1.812375249500998
F1.7984031936127745
F312.7764471057884
tp225
sI225
(F27.372893258426966
F1.7935393258426966
F1.7942415730337078
F312.8188202247191
tp226
sI226
(F27.383259911894275
F1.776064610866373
F1.8105726872246697
F312.86196769456683
tp227
sI227
(F27.32620320855615
F1.7433155080213905
F1.7700534759358288
F313.0236822001528
tp228
sI228
(F27.270465489566615
F1.731139646869984
F1.745585874799358
F313.19341894060994
tp229
sI229
(F27.249370277078086
F1.7128463476070528
F1.7405541561712847
F313.27959697732996
tp230
sI230
(F27.220858895705522
F1.7081507449605609
F1.6958808063102542
F313.44347063978967
tp231
sI231
(F27.18538812785388
F1.650228310502283
F1.6694063926940639
F313.59086757990866
tp232
sI232
(F27.22265246853824
F1.6534365924491772
F1.6815101645692159
F313.6456921587609
tp233
sI233
(F27.223577235772357
F1.6453252032520325
F1.6676829268292683
F313.7123983739837
tp234
sI234
(F27.19494204425711
F1.608008429926238
F1.6332982086406744
F313.8482613277134
tp235
sI235
(F27.140642303433
F1.573643410852713
F1.6157253599114065
F313.9811738648948
tp236
sI236
(F27.02322880371661
F1.5586527293844368
F1.5830429732868758
F314.14285714285717
tp237
sI237
(F26.993887530562347
F1.5097799511002445
F1.6210268948655258
F314.24327628361857
tp238
sI238
(F26.94878361075544
F1.496798975672215
F1.6081946222791292
F314.33290653008964
tp239
sI239
(F26.82573726541555
F1.4919571045576407
F1.579088471849866
F314.5040214477212
tp240
sI240
(F26.798898071625345
F1.421487603305785
F1.5509641873278237
F314.6404958677686
tp241
sI241
(F26.725829725829726
F1.406926406926407
F1.5425685425685425
F314.7893217893218
tp242
sI242
(F26.79638009049774
F1.3740573152337858
F1.5082956259426847
F314.87179487179486
tp243
sI243
(F26.75955414012739
F1.3853503184713376
F1.4952229299363058
F314.937898089172
tp244
sI244
(F26.716442953020135
F1.3926174496644295
F1.4395973154362416
F315.0738255033557
tp245
sI245
(F26.742105263157896
F1.3491228070175438
F1.424561403508772
F315.06666666666666
tp246
sI246
(F26.53544776119403
F1.3395522388059702
F1.4272388059701493
F315.339552238806
tp247
sI247
(F26.660039761431413
F1.3041749502982107
F1.4572564612326044
F315.26043737574554
tp248
sI248
(F26.596673596673597
F1.3347193347193347
F1.3762993762993763
F315.4074844074844
tp249
sI249
(F26.600877192982455
F1.3048245614035088
F1.3793859649122806
F315.4451754385965
tp250
sI250
(F26.631336405529954
F1.3133640552995391
F1.3709677419354838
F315.4377880184332
tp251
sI251
(F26.62953995157385
F1.297820823244552
F1.360774818401937
F315.53268765133174
tp252
sI252
(F26.524050632911393
F1.2582278481012659
F1.3746835443037975
F315.5873417721519
tp253
sI253
(F26.41424802110818
F1.2401055408970976
F1.345646437994723
F315.7730870712401
tp254
sI254
(F26.348773841961854
F1.20708446866485
F1.3215258855585832
F315.8392370572207
tp255
sI255
(F26.43227665706052
F1.2103746397694524
F1.2997118155619596
F315.87896253602304
tp256
sI256
(F26.4797507788162
F1.280373831775701
F1.2866043613707165
F315.79750778816197
tp257
sI257
(F26.455737704918032
F1.2327868852459016
F1.2819672131147541
F315.88524590163934
tp258
sI258
(F26.367132867132867
F1.2587412587412588
F1.2342657342657342
F316.0034965034965
tp259
sI259
(F26.08582089552239
F1.2313432835820894
F1.257462686567164
F316.1044776119403
tp260
sI260
(F25.92217898832685
F1.2490272373540856
F1.1906614785992218
F316.36964980544747
tp261
sI261
(F25.99591836734694
F1.146938775510204
F1.2489795918367348
F316.41632653061225
tp262
sI262
(F25.953389830508474
F1.1822033898305084
F1.1440677966101696
F316.54237288135596
tp263
sI263
(F25.88105726872247
F1.158590308370044
F1.1233480176211454
F316.7136563876652
tp264
sI264
(F25.829493087557605
F1.152073732718894
F1.1843317972350231
F316.62672811059906
tp265
sI265
(F25.75728155339806
F1.0825242718446602
F1.266990291262136
F316.7378640776699
tp266
sI266
(F25.633165829145728
F1.020100502512563
F1.2663316582914572
F316.90954773869345
tp267
sI267
(F25.534391534391535
F0.9788359788359788
F1.2804232804232805
F316.95767195767195
tp268
sI268
(F25.62857142857143
F0.9657142857142857
F1.3085714285714285
F317.1657142857143
tp269
sI269
(F25.812121212121212
F0.9515151515151515
F1.284848484848485
F317.1575757575758
tp270
sI270
(F25.897435897435898
F0.9615384615384616
F1.2371794871794872
F317.12820512820514
tp271
sI271
(F25.959183673469386
F0.9251700680272109
F1.1768707482993197
F317.21768707482994
tp272
sI272
(F26.086330935251798
F0.9064748201438849
F1.1654676258992807
F317.2086330935252
tp273
sI273
(F26.036496350364963
F0.8394160583941606
F1.0218978102189782
F317.4744525547445
tp274
sI274
(F26.072580645161292
F0.8790322580645161
F1.0080645161290323
F317.31451612903226
tp275
sI275
(F26.161016949152543
F0.8728813559322034
F0.8898305084745762
F317.46610169491527
tp276
sI276
(F26.01818181818182
F0.8090909090909091
F0.9636363636363636
F317.76363636363635
tp277
sI277
(F25.876190476190477
F0.7523809523809524
F0.9809523809523809
F317.9809523809524
tp278
sI278
(F25.195876288659793
F0.7938144329896907
F1.0309278350515463
F318.3814432989691
tp279
sI279
(F25.41304347826087
F0.8478260869565217
F1.0
F318.35869565217394
tp280
sI280
(F25.28409090909091
F0.7159090909090909
F1.0454545454545454
F318.5568181818182
tp281
sI281
(F25.1375
F0.75
F1.1125
F318.7875
tp282
sI282
(F24.7972972972973
F0.7837837837837838
F1.0945945945945945
F319.0135135135135
tp283
sI283
(F24.52857142857143
F0.7714285714285715
F1.0571428571428572
F319.2
tp284
sI284
(F24.454545454545453
F0.803030303030303
F0.9848484848484849
F319.54545454545456
tp285
sI285
(F24.6984126984127
F0.7777777777777778
F0.8571428571428571
F319.57142857142856
tp286
sI286
(F25.10909090909091
F0.8
F0.9818181818181818
F319.23636363636365
tp287
sI287
(F25.055555555555557
F0.8148148148148148
F0.7962962962962963
F319.35185185185185
tp288
sI288
(F25.5625
F0.7916666666666666
F0.8125
F318.7916666666667
tp289
sI289
(F25.727272727272727
F0.75
F0.8181818181818182
F318.8636363636364
tp290
sI290
(F25.75
F0.725
F0.9
F319.025
tp291
sI291
(F25.783783783783782
F0.7027027027027027
F0.972972972972973
F318.8918918918919
tp292
sI292
(F25.914285714285715
F0.5714285714285714
F1.1714285714285715
F319.14285714285717
tp293
sI293
(F25.885714285714286
F0.4857142857142857
F1.2571428571428571
F319.1714285714286
tp294
sI294
(F25.885714285714286
F0.42857142857142855
F1.0285714285714285
F319.45714285714286
tp295
sI295
(F25.8
F0.5
F1.2
F319.1333333333333
tp296
sI296
(F25.8
F0.43333333333333335
F0.9
F319.5
tp297
sI297
(F25.346153846153847
F0.38461538461538464
F1.0
F319.38461538461536
tp298
sI298
(F25.91304347826087
F0.43478260869565216
F0.9130434782608695
F319.0
tp299
sI299
(F25.894736842105264
F0.5263157894736842
F0.8947368421052632
F318.4736842105263
tp300
sI300
(F26.0625
F0.5625
F0.875
F318.4375
tp301
sI301
(F27.666666666666668
F0.75
F0.9166666666666666
F317.25
tp302
sI302
(F28.363636363636363
F0.6363636363636364
F1.0909090909090908
F316.90909090909093
tp303
sI303
(F28.272727272727273
F0.6363636363636364
F0.9090909090909091
F317.1818181818182
tp304
sI304
(F27.88888888888889
F0.7777777777777778
F1.0
F316.77777777777777
tp305
sI305
(F28.125
F0.875
F0.875
F316.625
tp306
sI306
(F26.857142857142858
F1.0
F1.0
F318.7142857142857
tp307
sI307
(F26.857142857142858
F1.0
F0.8571428571428571
F318.85714285714283
tp308
sI308
(F26.857142857142858
F0.7142857142857143
F0.8571428571428571
F319.14285714285717
tp309
sI309
(F28.333333333333332
F0.6666666666666666
F1.0
F317.1666666666667
tp310
sI310
(F28.333333333333332
F0.5
F1.0
F317.3333333333333
tp311
sI311
(F28.333333333333332
F0.3333333333333333
F1.1666666666666667
F317.3333333333333
tp312
sI312
(F28.333333333333332
F0.3333333333333333
F1.0
F317.5
tp313
sI313
(F28.333333333333332
F0.3333333333333333
F0.8333333333333334
F317.6666666666667
tp314
sI314
(F28.333333333333332
F0.3333333333333333
F0.8333333333333334
F317.6666666666667
tp315
sI315
(F28.333333333333332
F0.16666666666666666
F0.8333333333333334
F317.8333333333333
tp316
sI316
(F28.2
F0.2
F0.8
F316.0
tp317
sI317
(F28.25
F0.25
F1.0
F314.75
tp318
sI318
(F28.25
F0.25
F0.75
F315.0
tp319
sI319
(F33.666666666666664
F0.3333333333333333
F0.6666666666666666
F308.6666666666667
tp320
sI320
(F37.0
F0.5
F1.0
F305.0
tp321
sI321
(F37.0
F0.5
F1.0
F305.0
tp322
sI322
(F37.0
F0.5
F0.5
F305.5
tp323
sI323
(F37.0
F0.5
F0.5
F305.5
tp324
sI324
(F37.0
F0.5
F0.0
F306.0
tp325
sI325
(F32.0
F1.0
F0.0
F308.0
tp326
sI326
(F32.0
F1.0
F0.0
F308.0
tp327
sI327
(F32.0
F1.0
F0.0
F308.0
tp328
sI328
(F32.0
F1.0
F0.0
F308.0
tp329
sI329
(F32.0
F1.0
F0.0
F308.0
tp330
sI330
(F32.0
F0.0
F1.0
F308.0
tp331
sI331
(F31.0
F1.0
F0.0
F309.0
tp332
sI332
(F31.0
F1.0
F0.0
F309.0
tp333
sI333
(F31.0
F1.0
F0.0
F309.0
tp334
sI334
(F31.0
F1.0
F0.0
F309.0
tp335
sI335
(F31.0
F1.0
F0.0
F309.0
tp336
sI336
(F31.0
F1.0
F0.0
F309.0
tp337
sI337
(F31.0
F1.0
F0.0
F309.0
tp338
sI338
(F31.0
F1.0
F0.0
F309.0
tp339
sI339
(F31.0
F1.0
F0.0
F309.0
tp340
sI340
(F31.0
F1.0
F0.0
F309.0
tp341
sI341
(F31.0
F1.0
F0.0
F309.0
tp342
sI342
(F31.0
F1.0
F0.0
F309.0
tp343
sI343
(F31.0
F1.0
F0.0
F309.0
tp344
sI344
(F31.0
F0.0
F1.0
F309.0
tp345
sI345
(F31.0
F0.0
F1.0
F309.0
tp346
sI346
(F31.0
F0.0
F1.0
F309.0
tp347
sI347
(F31.0
F0.0
F1.0
F309.0
tp348
sI348
(F31.0
F0.0
F1.0
F309.0
tp349
sI349
(F31.0
F0.0
F1.0
F309.0
tp350
sI350
(F31.0
F0.0
F1.0
F309.0
tp351
sI351
(F31.0
F0.0
F1.0
F309.0
tp352
sI352
(F31.0
F0.0
F0.0
F310.0
tp353
s.